; Function Attrs: nounwind uwtable
define noundef ptr @l_Lean_Lsp_instFileSourceDocumentSymbolParams(ptr noundef returned %0) local_unnamed_addr #0 {
  %2 = ptrtoint ptr %0 to i64
  %3 = and i64 %2, 1
  %.not = icmp eq i64 %3, 0
  br i1 %.not, label %4, label %lean_inc.exit

4:                                                ; preds = %1
  %.val.i = load i32, ptr %0, align 4, !tbaa !8
  %5 = icmp sgt i32 %.val.i, 0
  br i1 %5, label %6, label %8, !prof !11

6:                                                ; preds = %4
  %7 = add nuw i32 %.val.i, 1
  store i32 %7, ptr %0, align 4, !tbaa !8
  br label %lean_inc.exit

8:                                                ; preds = %4
  %.not.i = icmp eq i32 %.val.i, 0
  br i1 %.not.i, label %lean_inc.exit, label %9

9:                                                ; preds = %8
  tail call void @lean_inc_ref_cold(ptr noundef nonnull %0) #3
  br label %lean_inc.exit

lean_inc.exit:                                    ; preds = %9, %8, %6, %1
  ret ptr %0
}